target datalayout = "e-m:e-p270:32:32-p271:32:32-p272:64:64-i64:64-i128:128-f80:128-n8:16:32:64-S128"
target triple = "x86_64-pc-linux-gnu"

%struct.AVPixFmtDescriptor = type { ptr, i8, i8, i8, i64, [4 x %struct.AVComponentDescriptor], ptr }
%struct.AVComponentDescriptor = type { i32, i32, i32, i32, i32 }

@.str.14 = private unnamed_addr constant [2 x i8] c"\0A\00", align 1
@.str.26 = private unnamed_addr constant [49 x i8] c"%c%c%c%c%c %-16s       %d            %3d      %d\00", align 1
@.str.27 = private unnamed_addr constant [4 x i8] c"-%d\00", align 1

; Function Attrs: nounwind uwtable
define i32 @show_pix_fmts(ptr noundef %0, ptr noundef %1, ptr noundef %2) #0 {
  %4 = alloca ptr, align 8
  %5 = alloca ptr, align 8
  %6 = alloca ptr, align 8
  %7 = alloca ptr, align 8
  %8 = alloca i32, align 4
  %9 = alloca i32, align 4
  store ptr %0, ptr %4, align 8, !tbaa !4
  store ptr %1, ptr %5, align 8, !tbaa !8
  store ptr %2, ptr %6, align 8, !tbaa !8
  call void @llvm.lifetime.start.p0(i64 8, ptr %7) #11
  store ptr null, ptr %7, align 8, !tbaa !107
  %10 = call i32 (ptr, ...) @printf(ptr noundef @.str.25)
  br label %11

11:                                               ; preds = %79, %3
  %12 = load ptr, ptr %7, align 8, !tbaa !107
  %13 = call ptr @av_pix_fmt_desc_next(ptr noundef %12)
  store ptr %13, ptr %7, align 8, !tbaa !107
  %14 = icmp ne ptr %13, null
  br i1 %14, label %15, label %81

15:                                               ; preds = %11
  call void @llvm.lifetime.start.p0(i64 4, ptr %8) #11
  %16 = load ptr, ptr %7, align 8, !tbaa !107
  %17 = call i32 @av_pix_fmt_desc_get_id(ptr noundef %16)
  store i32 %17, ptr %8, align 4, !tbaa !10
  %18 = load i32, ptr %8, align 4, !tbaa !10
  %19 = call i32 @sws_isSupportedInput(i32 noundef %18)
  %20 = icmp ne i32 %19, 0
  %21 = select i1 %20, i32 73, i32 46
  %22 = load i32, ptr %8, align 4, !tbaa !10
  %23 = call i32 @sws_isSupportedOutput(i32 noundef %22)
  %24 = icmp ne i32 %23, 0
  %25 = select i1 %24, i32 79, i32 46
  %26 = load ptr, ptr %7, align 8, !tbaa !107
  %27 = getelementptr inbounds nuw %struct.AVPixFmtDescriptor, ptr %26, i32 0, i32 4
  %28 = load i64, ptr %27, align 8, !tbaa !109
  %29 = and i64 %28, 8
  %30 = icmp ne i64 %29, 0
  %31 = select i1 %30, i32 72, i32 46
  %32 = load ptr, ptr %7, align 8, !tbaa !107
  %33 = getelementptr inbounds nuw %struct.AVPixFmtDescriptor, ptr %32, i32 0, i32 4
  %34 = load i64, ptr %33, align 8, !tbaa !109
  %35 = and i64 %34, 2
  %36 = icmp ne i64 %35, 0
  %37 = select i1 %36, i32 80, i32 46
  %38 = load ptr, ptr %7, align 8, !tbaa !107
  %39 = getelementptr inbounds nuw %struct.AVPixFmtDescriptor, ptr %38, i32 0, i32 4
  %40 = load i64, ptr %39, align 8, !tbaa !109
  %41 = and i64 %40, 4
  %42 = icmp ne i64 %41, 0
  %43 = select i1 %42, i32 66, i32 46
  %44 = load ptr, ptr %7, align 8, !tbaa !107
  %45 = getelementptr inbounds nuw %struct.AVPixFmtDescriptor, ptr %44, i32 0, i32 0
  %46 = load ptr, ptr %45, align 8, !tbaa !112
  %47 = load ptr, ptr %7, align 8, !tbaa !107
  %48 = getelementptr inbounds nuw %struct.AVPixFmtDescriptor, ptr %47, i32 0, i32 1
  %49 = load i8, ptr %48, align 8, !tbaa !113
  %50 = zext i8 %49 to i32
  %51 = load ptr, ptr %7, align 8, !tbaa !107
  %52 = call i32 @av_get_bits_per_pixel(ptr noundef %51)
  %53 = load ptr, ptr %7, align 8, !tbaa !107
  %54 = getelementptr inbounds nuw %struct.AVPixFmtDescriptor, ptr %53, i32 0, i32 5
  %55 = getelementptr inbounds [4 x %struct.AVComponentDescriptor], ptr %54, i64 0, i64 0
  %56 = getelementptr inbounds nuw %struct.AVComponentDescriptor, ptr %55, i32 0, i32 4
  %57 = load i32, ptr %56, align 8, !tbaa !114
  %58 = call i32 (ptr, ...) @printf(ptr noundef @.str.26, i32 noundef %21, i32 noundef %25, i32 noundef %31, i32 noundef %37, i32 noundef %43, ptr noundef %46, i32 noundef %50, i32 noundef %52, i32 noundef %57)
  call void @llvm.lifetime.start.p0(i64 4, ptr %9) #11
  store i32 1, ptr %9, align 4, !tbaa !10
  br label %59

59:                                               ; preds = %76, %15
  %60 = load i32, ptr %9, align 4, !tbaa !10
  %61 = load ptr, ptr %7, align 8, !tbaa !107
  %62 = getelementptr inbounds nuw %struct.AVPixFmtDescriptor, ptr %61, i32 0, i32 1
  %63 = load i8, ptr %62, align 8, !tbaa !113
  %64 = zext i8 %63 to i32
  %65 = icmp ult i32 %60, %64
  br i1 %65, label %67, label %66

66:                                               ; preds = %59
  call void @llvm.lifetime.end.p0(i64 4, ptr %9) #11
  br label %79

67:                                               ; preds = %59
  %68 = load ptr, ptr %7, align 8, !tbaa !107
  %69 = getelementptr inbounds nuw %struct.AVPixFmtDescriptor, ptr %68, i32 0, i32 5
  %70 = load i32, ptr %9, align 4, !tbaa !10
  %71 = zext i32 %70 to i64
  %72 = getelementptr inbounds nuw [4 x %struct.AVComponentDescriptor], ptr %69, i64 0, i64 %71
  %73 = getelementptr inbounds nuw %struct.AVComponentDescriptor, ptr %72, i32 0, i32 4
  %74 = load i32, ptr %73, align 4, !tbaa !114
  %75 = call i32 (ptr, ...) @printf(ptr noundef @.str.27, i32 noundef %74)
  br label %76

76:                                               ; preds = %67
  %77 = load i32, ptr %9, align 4, !tbaa !10
  %78 = add i32 %77, 1
  store i32 %78, ptr %9, align 4, !tbaa !10
  br label %59, !llvm.loop !116

79:                                               ; preds = %66
  %80 = call i32 (ptr, ...) @printf(ptr noundef @.str.14)
  call void @llvm.lifetime.end.p0(i64 4, ptr %8) #11
  br label %11, !llvm.loop !117

81:                                               ; preds = %11
  call void @llvm.lifetime.end.p0(i64 8, ptr %7) #11
  ret i32 0
}