; Function Attrs: nounwind uwtable
define noundef i32 @show_pix_fmts(ptr noundef readnone captures(none) %0, ptr noundef readnone captures(none) %1, ptr noundef readnone captures(none) %2) local_unnamed_addr #2 {
  %puts = tail call i32 @puts(ptr nonnull dereferenceable(1) @str.13)
  %4 = tail call ptr @av_pix_fmt_desc_next(ptr noundef null) #17
  %.not23 = icmp eq ptr %4, null
  br i1 %.not23, label %._crit_edge26, label %.lr.ph25

.lr.ph25:                                         ; preds = %3, %._crit_edge
  %5 = phi ptr [ %29, %._crit_edge ], [ %4, %3 ]
  %6 = tail call i32 @av_pix_fmt_desc_get_id(ptr noundef nonnull %5) #17
  %7 = tail call i32 @sws_isSupportedInput(i32 noundef %6) #17
  %.not17 = icmp eq i32 %7, 0
  %8 = select i1 %.not17, i32 46, i32 73
  %9 = tail call i32 @sws_isSupportedOutput(i32 noundef %6) #17
  %.not18 = icmp eq i32 %9, 0
  %10 = select i1 %.not18, i32 46, i32 79
  %11 = getelementptr inbounds nuw i8, ptr %5, i64 16
  %12 = load i64, ptr %11, align 8, !tbaa !92
  %13 = and i64 %12, 8
  %.not19 = icmp eq i64 %13, 0
  %14 = select i1 %.not19, i32 46, i32 72
  %15 = and i64 %12, 2
  %.not20 = icmp eq i64 %15, 0
  %16 = select i1 %.not20, i32 46, i32 80
  %17 = and i64 %12, 4
  %.not21 = icmp eq i64 %17, 0
  %18 = select i1 %.not21, i32 46, i32 66
  %19 = load ptr, ptr %5, align 8, !tbaa !95
  %20 = getelementptr inbounds nuw i8, ptr %5, i64 8
  %21 = load i8, ptr %20, align 8, !tbaa !96
  %22 = zext i8 %21 to i32
  %23 = tail call i32 @av_get_bits_per_pixel(ptr noundef nonnull %5) #17
  %24 = getelementptr inbounds nuw i8, ptr %5, i64 40
  %25 = load i32, ptr %24, align 8, !tbaa !97
  %26 = tail call i32 (ptr, ...) @printf(ptr noundef nonnull dereferenceable(1) @.str.26, i32 noundef %8, i32 noundef %10, i32 noundef %14, i32 noundef %16, i32 noundef %18, ptr noundef %19, i32 noundef %22, i32 noundef %23, i32 noundef %25)
  %27 = load i8, ptr %20, align 8, !tbaa !96
  %28 = icmp ugt i8 %27, 1
  br i1 %28, label %.lr.ph, label %._crit_edge

._crit_edge:                                      ; preds = %.lr.ph, %.lr.ph25
  %putchar = tail call i32 @putchar(i32 10)
  %29 = tail call ptr @av_pix_fmt_desc_next(ptr noundef nonnull %5) #17
  %.not = icmp eq ptr %29, null
  br i1 %.not, label %._crit_edge26, label %.lr.ph25, !llvm.loop !99

.lr.ph:                                           ; preds = %.lr.ph25, %.lr.ph
  %indvars.iv = phi i64 [ %indvars.iv.next, %.lr.ph ], [ 1, %.lr.ph25 ]
  %.idx = mul nuw nsw i64 %indvars.iv, 20
  %30 = getelementptr i8, ptr %24, i64 %.idx
  %31 = load i32, ptr %30, align 4, !tbaa !97
  %32 = tail call i32 (ptr, ...) @printf(ptr noundef nonnull dereferenceable(1) @.str.27, i32 noundef %31)
  %indvars.iv.next = add nuw nsw i64 %indvars.iv, 1
  %33 = load i8, ptr %20, align 8, !tbaa !96
  %34 = zext i8 %33 to i64
  %35 = icmp samesign ult i64 %indvars.iv.next, %34
  br i1 %35, label %.lr.ph, label %._crit_edge, !llvm.loop !100

._crit_edge26:                                    ; preds = %._crit_edge, %3
  ret i32 0
}